; Function Attrs: mustprogress uwtable
define dso_local void @_ZN4Luau12TypeChecker25visitEPNS_12AstTypeUnionE(ptr noundef nonnull align 8 dereferenceable(784) %0, ptr noundef readonly captures(none) %1) local_unnamed_addr #5 align 2 {
  %3 = getelementptr inbounds nuw i8, ptr %1, i64 32
  %4 = load ptr, ptr %3, align 8, !tbaa !603
  %5 = getelementptr inbounds nuw i8, ptr %1, i64 40
  %6 = load i64, ptr %5, align 8, !tbaa !605
  %7 = getelementptr inbounds nuw ptr, ptr %4, i64 %6
  %.not9 = icmp eq i64 %6, 0
  br i1 %.not9, label %._crit_edge, label %.lr.ph

._crit_edge:                                      ; preds = %.lr.ph, %2
  ret void

.lr.ph:                                           ; preds = %2, %.lr.ph
  %.010 = phi ptr [ %9, %.lr.ph ], [ %4, %2 ]
  %8 = load ptr, ptr %.010, align 8, !tbaa !422
  tail call void @_ZN4Luau12TypeChecker25visitEPNS_7AstTypeE(ptr noundef nonnull align 8 dereferenceable(784) %0, ptr noundef %8)
  %9 = getelementptr inbounds nuw i8, ptr %.010, i64 8
  %.not = icmp eq ptr %9, %7
  br i1 %.not, label %._crit_edge, label %.lr.ph
}